; Function Attrs: mustprogress uwtable
define noundef double @_ZN8QuantLib21bachelierBlackFormulaERKN5boost10shared_ptrINS_18PlainVanillaPayoffEEEddd(ptr nocapture noundef nonnull readonly align 8 dereferenceable(16) %payoff, double noundef %forward, double noundef %stdDev, double noundef %discount) local_unnamed_addr #4 {
entry:
  %0 = load ptr, ptr %payoff, align 8, !tbaa !31
  %cmp.not.i = icmp eq ptr %0, null
  br i1 %cmp.not.i, label %_ZNK5boost10shared_ptrIN8QuantLib18PlainVanillaPayoffEEptEv.exit, label %_ZNK5boost10shared_ptrIN8QuantLib18PlainVanillaPayoffEEptEv.exit5, !prof !33

_ZNK5boost10shared_ptrIN8QuantLib18PlainVanillaPayoffEEptEv.exit: ; preds = %entry
  tail call void @_ZN5boost16assertion_failedEPKcS1_S1_l(ptr noundef nonnull @.str.77, ptr noundef nonnull @__PRETTY_FUNCTION__._ZNK5boost10shared_ptrIN8QuantLib18PlainVanillaPayoffEEptEv, ptr noundef nonnull @.str.78, i64 noundef 784)
  %.pre.i = load ptr, ptr %payoff, align 8, !tbaa !31
  br label %_ZNK5boost10shared_ptrIN8QuantLib18PlainVanillaPayoffEEptEv.exit5

_ZNK5boost10shared_ptrIN8QuantLib18PlainVanillaPayoffEEptEv.exit5: ; preds = %entry, %_ZNK5boost10shared_ptrIN8QuantLib18PlainVanillaPayoffEEptEv.exit
  %1 = phi ptr [ %.pre.i, %_ZNK5boost10shared_ptrIN8QuantLib18PlainVanillaPayoffEEptEv.exit ], [ %0, %entry ]
  %.in = getelementptr inbounds nuw i8, ptr %1, i64 8
  %2 = load i32, ptr %.in, align 8, !tbaa !34
  %strike_.i = getelementptr inbounds nuw i8, ptr %1, i64 16
  %3 = load double, ptr %strike_.i, align 8, !tbaa !38
  %call4 = tail call noundef double @_ZN8QuantLib21bachelierBlackFormulaENS_6Option4TypeEdddd(i32 noundef %2, double noundef %3, double noundef %forward, double noundef %stdDev, double noundef %discount)
  ret double %call4
}